; Function Attrs: mustprogress nounwind uwtable
define dso_local void @_ZN5clang17ObjCContainerDeclC2ENS_4Decl4KindEPNS_11DeclContextEPKNS_14IdentifierInfoENS_14SourceLocationES8_(ptr noundef nonnull align 8 dereferenceable(88) %0, i32 noundef %1, ptr noundef %2, ptr noundef %3, i32 %4, i32 %5) unnamed_addr #0 align 2 {
  %7 = ptrtoint ptr %3 to i64
  tail call void @_ZN5clang4DeclC2ENS0_4KindEPNS_11DeclContextENS_14SourceLocationE(ptr noundef nonnull align 8 dereferenceable(33) %0, i32 noundef %1, ptr noundef %2, i32 %4)
  store ptr getelementptr inbounds inrange(-16, 104) (i8, ptr @_ZTVN5clang9NamedDeclE, i64 16), ptr %0, align 8
  %8 = getelementptr inbounds nuw i8, ptr %0, i64 40
  store i64 %7, ptr %8, align 8
  %9 = getelementptr inbounds i8, ptr %0, i64 48
  tail call void @_ZN5clang11DeclContextC2ENS_4Decl4KindE(ptr noundef nonnull align 8 dereferenceable(32) %9, i32 noundef %1) #23
  store ptr getelementptr inbounds inrange(-16, 112) (i8, ptr @_ZTVN5clang17ObjCContainerDeclE, i64 16), ptr %0, align 8
  %10 = getelementptr inbounds nuw i8, ptr %0, i64 80
  store i32 0, ptr %10, align 8
  %11 = getelementptr inbounds i8, ptr %0, i64 84
  store i32 0, ptr %11, align 4
  %12 = getelementptr inbounds i8, ptr %0, i64 60
  store i32 %5, ptr %12, align 4
  ret void
}